; Function Attrs: mustprogress nofree norecurse nosync nounwind willreturn memory(read, argmem: readwrite, inaccessiblemem: none) uwtable
define hidden ptr @sk_pop(ptr noundef captures(address_is_null) %0) local_unnamed_addr #13 {
  %2 = icmp eq ptr %0, null
  br i1 %2, label %sk_delete.exit, label %3

3:                                                ; preds = %1
  %4 = load i64, ptr %0, align 8, !tbaa !14
  %5 = icmp eq i64 %4, 0
  br i1 %5, label %sk_delete.exit, label %6

6:                                                ; preds = %3
  %7 = add i64 %4, -1
  %8 = getelementptr inbounds nuw i8, ptr %0, i64 8
  %9 = load ptr, ptr %8, align 8, !tbaa !6
  %10 = getelementptr inbounds nuw ptr, ptr %9, i64 %7
  %11 = load ptr, ptr %10, align 8, !tbaa !16
  store i64 %7, ptr %0, align 8, !tbaa !14
  br label %sk_delete.exit

sk_delete.exit:                                   ; preds = %6, %3, %1
  %.0 = phi ptr [ null, %1 ], [ null, %3 ], [ %11, %6 ]
  ret ptr %.0
}